target datalayout = "e-m:e-p270:32:32-p271:32:32-p272:64:64-i64:64-i128:128-f80:128-n8:16:32:64-S128"
target triple = "x86_64-pc-linux-gnu"

%union.bio_addr_st = type { %struct.sockaddr_in6, [84 x i8] }
%struct.sockaddr_in6 = type { i16, i16, i32, %struct.in6_addr, i32 }
%struct.in6_addr = type { %union.anon }
%union.anon = type { [4 x i32] }
%struct.bio_st = type { ptr, ptr, ptr, ptr, ptr, i32, i32, i32, i32, i32, ptr, ptr, ptr, %struct.CRYPTO_REF_COUNT, i64, i64, %struct.crypto_ex_data_st }
%struct.CRYPTO_REF_COUNT = type { i32 }
%struct.crypto_ex_data_st = type { ptr, ptr }
%struct.bio_dgram_pair_st = type { ptr, %struct.ring_buf, i64, i64, i32, ptr, ptr, i8 }
%struct.ring_buf = type { ptr, i64, i64, [2 x i64] }
%struct.dgram_hdr = type { i64, %union.bio_addr_st, %union.bio_addr_st }

@dgram_pair_write_actual.zero_addr = internal constant %union.bio_addr_st zeroinitializer, align 4

; Function Attrs: nounwind uwtable
define internal i64 @dgram_pair_write_actual(ptr noundef %0, ptr noundef %1, i64 noundef %2, ptr noundef %3, ptr noundef %4, i32 noundef %5) #0 {
  %7 = alloca i64, align 8
  %8 = alloca ptr, align 8
  %9 = alloca ptr, align 8
  %10 = alloca i64, align 8
  %11 = alloca ptr, align 8
  %12 = alloca ptr, align 8
  %13 = alloca i32, align 4
  %14 = alloca i64, align 8
  %15 = alloca i64, align 8
  %16 = alloca ptr, align 8
  %17 = alloca ptr, align 8
  %18 = alloca %struct.dgram_hdr, align 8
  %19 = alloca i32, align 4
  store ptr %0, ptr %8, align 8, !tbaa !12
  store ptr %1, ptr %9, align 8, !tbaa !14
  store i64 %2, ptr %10, align 8, !tbaa !8
  store ptr %3, ptr %11, align 8, !tbaa !47
  store ptr %4, ptr %12, align 8, !tbaa !47
  store i32 %5, ptr %13, align 4, !tbaa !10
  call void @llvm.lifetime.start.p0(i64 8, ptr %14) #8
  call void @llvm.lifetime.start.p0(i64 8, ptr %15) #8
  call void @llvm.lifetime.start.p0(i64 8, ptr %16) #8
  %20 = load ptr, ptr %8, align 8, !tbaa !12
  %21 = getelementptr inbounds nuw %struct.bio_st, ptr %20, i32 0, i32 10
  %22 = load ptr, ptr %21, align 8, !tbaa !16
  store ptr %22, ptr %16, align 8, !tbaa !23
  call void @llvm.lifetime.start.p0(i64 8, ptr %17) #8
  call void @llvm.lifetime.start.p0(i64 232, ptr %18) #8
  call void @llvm.memset.p0.i64(ptr align 8 %18, i8 0, i64 232, i1 false)
  %23 = load i32, ptr %13, align 4, !tbaa !10
  %24 = icmp ne i32 %23, 0
  br i1 %24, label %27, label %25

25:                                               ; preds = %6
  %26 = load ptr, ptr %8, align 8, !tbaa !12
  call void @BIO_clear_flags(ptr noundef %26, i32 noundef 15)
  br label %27

27:                                               ; preds = %25, %6
  %28 = load ptr, ptr %8, align 8, !tbaa !12
  %29 = getelementptr inbounds nuw %struct.bio_st, ptr %28, i32 0, i32 5
  %30 = load i32, ptr %29, align 8, !tbaa !45
  %31 = icmp ne i32 %30, 0
  br i1 %31, label %33, label %32

32:                                               ; preds = %27
  store i64 -120, ptr %7, align 8
  store i32 1, ptr %19, align 4
  br label %155

33:                                               ; preds = %27
  %34 = load ptr, ptr %16, align 8, !tbaa !23
  %35 = icmp ne ptr %34, null
  br i1 %35, label %36, label %42

36:                                               ; preds = %33
  %37 = load ptr, ptr %16, align 8, !tbaa !23
  %38 = getelementptr inbounds nuw %struct.bio_dgram_pair_st, ptr %37, i32 0, i32 1
  %39 = getelementptr inbounds nuw %struct.ring_buf, ptr %38, i32 0, i32 0
  %40 = load ptr, ptr %39, align 8, !tbaa !48
  %41 = icmp ne ptr %40, null
  br label %42

42:                                               ; preds = %36, %33
  %43 = phi i1 [ false, %33 ], [ %41, %36 ]
  %44 = zext i1 %43 to i32
  %45 = icmp ne i32 %44, 0
  %46 = xor i1 %45, true
  %47 = xor i1 %46, true
  %48 = zext i1 %47 to i32
  %49 = sext i32 %48 to i64
  %50 = call i64 @llvm.expect.i64(i64 %49, i64 1)
  %51 = icmp ne i64 %50, 0
  br i1 %51, label %53, label %52

52:                                               ; preds = %42
  store i64 -104, ptr %7, align 8
  store i32 1, ptr %19, align 4
  br label %155

53:                                               ; preds = %42
  %54 = load i64, ptr %10, align 8, !tbaa !8
  %55 = icmp ugt i64 %54, 0
  br i1 %55, label %56, label %60

56:                                               ; preds = %53
  %57 = load ptr, ptr %9, align 8, !tbaa !14
  %58 = icmp eq ptr %57, null
  br i1 %58, label %59, label %60

59:                                               ; preds = %56
  store i64 -125, ptr %7, align 8
  store i32 1, ptr %19, align 4
  br label %155

60:                                               ; preds = %56, %53
  %61 = load ptr, ptr %11, align 8, !tbaa !47
  %62 = icmp ne ptr %61, null
  br i1 %62, label %63, label %72

63:                                               ; preds = %60
  %64 = load ptr, ptr %16, align 8, !tbaa !23
  %65 = getelementptr inbounds nuw %struct.bio_dgram_pair_st, ptr %64, i32 0, i32 7
  %66 = load i8, ptr %65, align 8
  %67 = lshr i8 %66, 1
  %68 = and i8 %67, 1
  %69 = zext i8 %68 to i32
  %70 = icmp eq i32 %69, 0
  br i1 %70, label %71, label %72

71:                                               ; preds = %63
  store i64 -111, ptr %7, align 8
  store i32 1, ptr %19, align 4
  br label %155

72:                                               ; preds = %63, %60
  %73 = load ptr, ptr %16, align 8, !tbaa !23
  %74 = getelementptr inbounds nuw %struct.bio_dgram_pair_st, ptr %73, i32 0, i32 0
  %75 = load ptr, ptr %74, align 8, !tbaa !29
  %76 = icmp ne ptr %75, null
  br i1 %76, label %77, label %83

77:                                               ; preds = %72
  %78 = load ptr, ptr %16, align 8, !tbaa !23
  %79 = getelementptr inbounds nuw %struct.bio_dgram_pair_st, ptr %78, i32 0, i32 0
  %80 = load ptr, ptr %79, align 8, !tbaa !29
  %81 = getelementptr inbounds nuw %struct.bio_st, ptr %80, i32 0, i32 10
  %82 = load ptr, ptr %81, align 8, !tbaa !16
  store ptr %82, ptr %17, align 8, !tbaa !23
  br label %85

83:                                               ; preds = %72
  %84 = load ptr, ptr %16, align 8, !tbaa !23
  store ptr %84, ptr %17, align 8, !tbaa !23
  br label %85

85:                                               ; preds = %83, %77
  %86 = load ptr, ptr %12, align 8, !tbaa !47
  %87 = icmp ne ptr %86, null
  br i1 %87, label %88, label %95

88:                                               ; preds = %85
  %89 = load ptr, ptr %17, align 8, !tbaa !23
  %90 = getelementptr inbounds nuw %struct.bio_dgram_pair_st, ptr %89, i32 0, i32 4
  %91 = load i32, ptr %90, align 8, !tbaa !49
  %92 = and i32 %91, 2
  %93 = icmp eq i32 %92, 0
  br i1 %93, label %94, label %95

94:                                               ; preds = %88
  store i64 -151, ptr %7, align 8
  store i32 1, ptr %19, align 4
  br label %155

95:                                               ; preds = %88, %85
  %96 = load i64, ptr %10, align 8, !tbaa !8
  %97 = getelementptr inbounds nuw %struct.dgram_hdr, ptr %18, i32 0, i32 0
  store i64 %96, ptr %97, align 8, !tbaa !50
  %98 = getelementptr inbounds nuw %struct.dgram_hdr, ptr %18, i32 0, i32 2
  %99 = load ptr, ptr %12, align 8, !tbaa !47
  %100 = icmp ne ptr %99, null
  br i1 %100, label %101, label %103

101:                                              ; preds = %95
  %102 = load ptr, ptr %12, align 8, !tbaa !47
  call void @llvm.memcpy.p0.p0.i64(ptr align 8 %98, ptr align 4 %102, i64 112, i1 false), !tbaa.struct !52
  br label %104

103:                                              ; preds = %95
  call void @llvm.memcpy.p0.p0.i64(ptr align 8 %98, ptr align 4 @dgram_pair_write_actual.zero_addr, i64 112, i1 false), !tbaa.struct !52
  br label %104

104:                                              ; preds = %103, %101
  %105 = load ptr, ptr %11, align 8, !tbaa !47
  %106 = icmp eq ptr %105, null
  br i1 %106, label %107, label %111

107:                                              ; preds = %104
  %108 = load ptr, ptr %16, align 8, !tbaa !23
  %109 = getelementptr inbounds nuw %struct.bio_dgram_pair_st, ptr %108, i32 0, i32 5
  %110 = load ptr, ptr %109, align 8, !tbaa !54
  store ptr %110, ptr %11, align 8, !tbaa !47
  br label %111

111:                                              ; preds = %107, %104
  %112 = getelementptr inbounds nuw %struct.dgram_hdr, ptr %18, i32 0, i32 1
  %113 = load ptr, ptr %11, align 8, !tbaa !47
  %114 = icmp ne ptr %113, null
  br i1 %114, label %115, label %117

115:                                              ; preds = %111
  %116 = load ptr, ptr %11, align 8, !tbaa !47
  call void @llvm.memcpy.p0.p0.i64(ptr align 8 %112, ptr align 4 %116, i64 112, i1 false), !tbaa.struct !52
  br label %118

117:                                              ; preds = %111
  call void @llvm.memcpy.p0.p0.i64(ptr align 8 %112, ptr align 4 @dgram_pair_write_actual.zero_addr, i64 112, i1 false), !tbaa.struct !52
  br label %118

118:                                              ; preds = %117, %115
  %119 = load ptr, ptr %16, align 8, !tbaa !23
  %120 = getelementptr inbounds nuw %struct.bio_dgram_pair_st, ptr %119, i32 0, i32 1
  %121 = getelementptr inbounds nuw %struct.ring_buf, ptr %120, i32 0, i32 3
  %122 = getelementptr inbounds [2 x i64], ptr %121, i64 0, i64 0
  %123 = load i64, ptr %122, align 8, !tbaa !8
  store i64 %123, ptr %14, align 8, !tbaa !8
  %124 = load ptr, ptr %16, align 8, !tbaa !23
  %125 = getelementptr inbounds nuw %struct.bio_dgram_pair_st, ptr %124, i32 0, i32 1
  %126 = getelementptr inbounds nuw %struct.ring_buf, ptr %125, i32 0, i32 2
  %127 = load i64, ptr %126, align 8, !tbaa !55
  store i64 %127, ptr %15, align 8, !tbaa !8
  %128 = load ptr, ptr %16, align 8, !tbaa !23
  %129 = call i64 @dgram_pair_write_inner(ptr noundef %128, ptr noundef %18, i64 noundef 232)
  %130 = icmp ne i64 %129, 232
  br i1 %130, label %138, label %131

131:                                              ; preds = %118
  %132 = load ptr, ptr %16, align 8, !tbaa !23
  %133 = load ptr, ptr %9, align 8, !tbaa !14
  %134 = load i64, ptr %10, align 8, !tbaa !8
  %135 = call i64 @dgram_pair_write_inner(ptr noundef %132, ptr noundef %133, i64 noundef %134)
  %136 = load i64, ptr %10, align 8, !tbaa !8
  %137 = icmp ne i64 %135, %136
  br i1 %137, label %138, label %153

138:                                              ; preds = %131, %118
  %139 = load i64, ptr %14, align 8, !tbaa !8
  %140 = load ptr, ptr %16, align 8, !tbaa !23
  %141 = getelementptr inbounds nuw %struct.bio_dgram_pair_st, ptr %140, i32 0, i32 1
  %142 = getelementptr inbounds nuw %struct.ring_buf, ptr %141, i32 0, i32 3
  %143 = getelementptr inbounds [2 x i64], ptr %142, i64 0, i64 0
  store i64 %139, ptr %143, align 8, !tbaa !8
  %144 = load i64, ptr %15, align 8, !tbaa !8
  %145 = load ptr, ptr %16, align 8, !tbaa !23
  %146 = getelementptr inbounds nuw %struct.bio_dgram_pair_st, ptr %145, i32 0, i32 1
  %147 = getelementptr inbounds nuw %struct.ring_buf, ptr %146, i32 0, i32 2
  store i64 %144, ptr %147, align 8, !tbaa !55
  %148 = load i32, ptr %13, align 4, !tbaa !10
  %149 = icmp ne i32 %148, 0
  br i1 %149, label %152, label %150

150:                                              ; preds = %138
  %151 = load ptr, ptr %8, align 8, !tbaa !12
  call void @BIO_set_flags(ptr noundef %151, i32 noundef 10)
  br label %152

152:                                              ; preds = %150, %138
  store i64 -112, ptr %7, align 8
  store i32 1, ptr %19, align 4
  br label %155

153:                                              ; preds = %131
  %154 = load i64, ptr %10, align 8, !tbaa !8
  store i64 %154, ptr %7, align 8
  store i32 1, ptr %19, align 4
  br label %155

155:                                              ; preds = %153, %152, %94, %71, %59, %52, %32
  call void @llvm.lifetime.end.p0(i64 232, ptr %18) #8
  call void @llvm.lifetime.end.p0(i64 8, ptr %17) #8
  call void @llvm.lifetime.end.p0(i64 8, ptr %16) #8
  call void @llvm.lifetime.end.p0(i64 8, ptr %15) #8
  call void @llvm.lifetime.end.p0(i64 8, ptr %14) #8
  %156 = load i64, ptr %7, align 8
  ret i64 %156
}