; Function Attrs: nounwind uwtable
define internal fastcc noundef i64 @dgram_pair_write_actual(ptr noundef %0, ptr noundef readonly captures(address_is_null) %1, i64 noundef %2, ptr noundef readonly captures(address_is_null) %3, ptr noundef readonly captures(address_is_null) %4, i32 noundef range(i32 0, 2) %5) unnamed_addr #1 {
  %7 = alloca %struct.dgram_hdr, align 8
  %8 = getelementptr inbounds nuw i8, ptr %0, i64 64
  %9 = load ptr, ptr %8, align 8, !tbaa !8
  call void @llvm.lifetime.start.p0(i64 232, ptr nonnull %7) #7
  call void @llvm.memset.p0.i64(ptr noundef nonnull align 8 dereferenceable(232) %7, i8 0, i64 232, i1 false)
  %.not = icmp eq i32 %5, 0
  br i1 %.not, label %10, label %11

10:                                               ; preds = %6
  tail call void @BIO_clear_flags(ptr noundef nonnull %0, i32 noundef 15) #7
  br label %11

11:                                               ; preds = %10, %6
  %12 = getelementptr inbounds nuw i8, ptr %0, i64 40
  %13 = load i32, ptr %12, align 8, !tbaa !30
  %.not44 = icmp eq i32 %13, 0
  br i1 %.not44, label %.critedge, label %14

14:                                               ; preds = %11
  %.not45 = icmp eq ptr %9, null
  br i1 %.not45, label %.critedge, label %15

15:                                               ; preds = %14
  %16 = getelementptr inbounds nuw i8, ptr %9, i64 8
  %17 = load ptr, ptr %16, align 8, !tbaa !45
  %.not56 = icmp eq ptr %17, null
  br i1 %.not56, label %.critedge, label %18, !prof !34

18:                                               ; preds = %15
  %19 = icmp ne i64 %2, 0
  %20 = icmp eq ptr %1, null
  %or.cond = and i1 %20, %19
  br i1 %or.cond, label %.critedge, label %21

21:                                               ; preds = %18
  %.not46 = icmp eq ptr %3, null
  br i1 %.not46, label %27, label %22

22:                                               ; preds = %21
  %23 = getelementptr inbounds nuw i8, ptr %9, i64 88
  %24 = load i8, ptr %23, align 8
  %25 = and i8 %24, 2
  %26 = icmp eq i8 %25, 0
  br i1 %26, label %.critedge, label %27

27:                                               ; preds = %22, %21
  %28 = load ptr, ptr %9, align 8, !tbaa !22
  %.not47 = icmp eq ptr %28, null
  br i1 %.not47, label %32, label %29

29:                                               ; preds = %27
  %30 = getelementptr inbounds nuw i8, ptr %28, i64 64
  %31 = load ptr, ptr %30, align 8, !tbaa !8
  br label %32

32:                                               ; preds = %27, %29
  %.0 = phi ptr [ %31, %29 ], [ %9, %27 ]
  %.not48 = icmp eq ptr %4, null
  br i1 %.not48, label %40, label %33

33:                                               ; preds = %32
  %34 = getelementptr inbounds nuw i8, ptr %.0, i64 64
  %35 = load i32, ptr %34, align 8, !tbaa !32
  %36 = and i32 %35, 2
  %37 = icmp eq i32 %36, 0
  br i1 %37, label %.critedge, label %38

38:                                               ; preds = %33
  store i64 %2, ptr %7, align 8, !tbaa !46
  %39 = getelementptr inbounds nuw i8, ptr %7, i64 120
  call void @llvm.memcpy.p0.p0.i64(ptr noundef nonnull align 8 dereferenceable(112) %39, ptr noundef nonnull align 4 dereferenceable(112) %4, i64 112, i1 false), !tbaa.struct !48
  br label %42

40:                                               ; preds = %32
  store i64 %2, ptr %7, align 8, !tbaa !46
  %41 = getelementptr inbounds nuw i8, ptr %7, i64 120
  call void @llvm.memset.p0.i64(ptr noundef nonnull align 8 dereferenceable(112) %41, i8 0, i64 112, i1 false)
  br label %42

42:                                               ; preds = %40, %38
  br i1 %.not46, label %44, label %.thread52

.thread52:                                        ; preds = %42
  %43 = getelementptr inbounds nuw i8, ptr %7, i64 8
  br label %48

44:                                               ; preds = %42
  %45 = getelementptr inbounds nuw i8, ptr %9, i64 72
  %46 = load ptr, ptr %45, align 8, !tbaa !31
  %47 = getelementptr inbounds nuw i8, ptr %7, i64 8
  %.not49 = icmp eq ptr %46, null
  br i1 %.not49, label %50, label %48

48:                                               ; preds = %.thread52, %44
  %49 = phi ptr [ %43, %.thread52 ], [ %47, %44 ]
  %.03855 = phi ptr [ %3, %.thread52 ], [ %46, %44 ]
  call void @llvm.memcpy.p0.p0.i64(ptr noundef nonnull align 8 dereferenceable(112) %49, ptr noundef nonnull align 4 dereferenceable(112) %.03855, i64 112, i1 false), !tbaa.struct !48
  br label %51

50:                                               ; preds = %44
  call void @llvm.memset.p0.i64(ptr noundef nonnull align 8 dereferenceable(112) %47, i8 0, i64 112, i1 false)
  br label %51

51:                                               ; preds = %50, %48
  %52 = getelementptr inbounds nuw i8, ptr %9, i64 32
  %53 = load i64, ptr %52, align 8, !tbaa !35
  %54 = getelementptr inbounds nuw i8, ptr %9, i64 24
  %55 = load i64, ptr %54, align 8, !tbaa !50
  %56 = call fastcc i64 @dgram_pair_write_inner(ptr noundef nonnull %9, ptr noundef nonnull %7, i64 noundef 232)
  %.not50 = icmp eq i64 %56, 232
  br i1 %.not50, label %57, label %59

57:                                               ; preds = %51
  %58 = tail call fastcc i64 @dgram_pair_write_inner(ptr noundef nonnull %9, ptr noundef %1, i64 noundef %2)
  %.not51 = icmp eq i64 %58, %2
  br i1 %.not51, label %.critedge, label %59

59:                                               ; preds = %57, %51
  store i64 %53, ptr %52, align 8, !tbaa !35
  store i64 %55, ptr %54, align 8, !tbaa !50
  br i1 %.not, label %60, label %.critedge

60:                                               ; preds = %59
  tail call void @BIO_set_flags(ptr noundef nonnull %0, i32 noundef 10) #7
  br label %.critedge

.critedge:                                        ; preds = %14, %57, %59, %60, %33, %22, %18, %15, %11
  %.037 = phi i64 [ -120, %11 ], [ -104, %15 ], [ -125, %18 ], [ -111, %22 ], [ -151, %33 ], [ -112, %60 ], [ -112, %59 ], [ %2, %57 ], [ -104, %14 ]
  call void @llvm.lifetime.end.p0(i64 232, ptr nonnull %7) #7
  ret i64 %.037
}